; Function Attrs: mustprogress nofree norecurse nosync nounwind memory(readwrite, inaccessiblemem: none) uwtable
define hidden void @_ZN5zxing9BitMatrix4xxorENS_3RefIS0_EE(ptr nocapture noundef nonnull readonly align 8 dereferenceable(346) %0, ptr nocapture noundef readonly %1) local_unnamed_addr #5 align 2 {
  %3 = getelementptr inbounds i8, ptr %0, i64 12
  %4 = load i32, ptr %3, align 4
  %5 = load ptr, ptr %1, align 8
  %6 = getelementptr inbounds i8, ptr %5, i64 12
  %7 = load i32, ptr %6, align 4
  %.not = icmp eq i32 %4, %7
  br i1 %.not, label %8, label %.critedge

8:                                                ; preds = %2
  %9 = getelementptr inbounds i8, ptr %0, i64 16
  %10 = load i32, ptr %9, align 8
  %11 = getelementptr inbounds i8, ptr %5, i64 16
  %12 = load i32, ptr %11, align 8
  %.not19 = icmp eq i32 %10, %12
  %13 = icmp sgt i32 %10, 0
  %or.cond = and i1 %.not19, %13
  br i1 %or.cond, label %.lr.ph23, label %.critedge

.lr.ph23:                                         ; preds = %8
  %14 = getelementptr inbounds i8, ptr %0, i64 20
  %15 = getelementptr inbounds i8, ptr %0, i64 312
  %16 = getelementptr inbounds i8, ptr %0, i64 336
  br label %17

17:                                               ; preds = %.lr.ph23, %.critedge2
  %indvars.iv27 = phi i64 [ 0, %.lr.ph23 ], [ %indvars.iv.next28, %.critedge2 ]
  %18 = load ptr, ptr %1, align 8
  %19 = getelementptr inbounds i8, ptr %18, i64 16
  %20 = load i32, ptr %19, align 8
  %21 = sext i32 %20 to i64
  %22 = icmp slt i64 %indvars.iv27, %21
  br i1 %22, label %23, label %.critedge

23:                                               ; preds = %17
  %24 = getelementptr inbounds i8, ptr %18, i64 20
  %25 = load i32, ptr %24, align 4
  %26 = trunc nuw nsw i64 %indvars.iv27 to i32
  %27 = mul nsw i32 %25, %26
  %28 = getelementptr inbounds i8, ptr %18, i64 312
  %29 = load ptr, ptr %28, align 8
  %30 = getelementptr inbounds i8, ptr %29, i64 16
  %31 = load ptr, ptr %30, align 8
  %32 = sext i32 %27 to i64
  %33 = getelementptr inbounds i8, ptr %31, i64 %32
  %34 = load i32, ptr %14, align 4
  %35 = mul nsw i32 %34, %26
  %36 = load ptr, ptr %15, align 8
  %37 = getelementptr inbounds i8, ptr %36, i64 16
  %38 = load ptr, ptr %37, align 8
  %39 = sext i32 %35 to i64
  %40 = getelementptr inbounds i8, ptr %38, i64 %39
  %41 = load i32, ptr %3, align 4
  %42 = icmp sgt i32 %41, 0
  br i1 %42, label %.lr.ph, label %.critedge2

.lr.ph:                                           ; preds = %23, %48
  %indvars.iv = phi i64 [ %indvars.iv.next, %48 ], [ 0, %23 ]
  %43 = load ptr, ptr %1, align 8
  %44 = getelementptr inbounds i8, ptr %43, i64 12
  %45 = load i32, ptr %44, align 4
  %46 = sext i32 %45 to i64
  %47 = icmp slt i64 %indvars.iv, %46
  br i1 %47, label %48, label %.critedge2.loopexit

48:                                               ; preds = %.lr.ph
  %49 = getelementptr inbounds i8, ptr %40, i64 %indvars.iv
  %50 = load i8, ptr %49, align 1
  %51 = getelementptr inbounds i8, ptr %33, i64 %indvars.iv
  %52 = load i8, ptr %51, align 1
  %53 = xor i8 %52, %50
  %54 = and i8 %53, 1
  store i8 %54, ptr %49, align 1
  %indvars.iv.next = add nuw nsw i64 %indvars.iv, 1
  %55 = load i32, ptr %3, align 4
  %56 = sext i32 %55 to i64
  %57 = icmp slt i64 %indvars.iv.next, %56
  br i1 %57, label %.lr.ph, label %.critedge2.loopexit, !llvm.loop !7

.critedge2.loopexit:                              ; preds = %48, %.lr.ph
  %.pre = load ptr, ptr %15, align 8
  %.phi.trans.insert = getelementptr inbounds i8, ptr %.pre, i64 16
  %.pre30 = load ptr, ptr %.phi.trans.insert, align 8
  %.pre31 = load i32, ptr %14, align 4
  br label %.critedge2

.critedge2:                                       ; preds = %.critedge2.loopexit, %23
  %58 = phi i32 [ %.pre31, %.critedge2.loopexit ], [ %34, %23 ]
  %59 = phi ptr [ %.pre30, %.critedge2.loopexit ], [ %38, %23 ]
  %60 = load ptr, ptr %16, align 8
  %61 = getelementptr inbounds i8, ptr %60, i64 16
  %62 = load ptr, ptr %61, align 8
  %63 = getelementptr inbounds i32, ptr %62, i64 %indvars.iv27
  %64 = load i32, ptr %63, align 4
  %65 = sext i32 %64 to i64
  %66 = getelementptr inbounds i8, ptr %59, i64 %65
  %67 = sext i32 %58 to i64
  tail call void @llvm.memcpy.p0.p0.i64(ptr align 1 %66, ptr readonly align 1 %40, i64 %67, i1 false)
  %indvars.iv.next28 = add nuw nsw i64 %indvars.iv27, 1
  %68 = load i32, ptr %9, align 8
  %69 = sext i32 %68 to i64
  %70 = icmp slt i64 %indvars.iv.next28, %69
  br i1 %70, label %17, label %.critedge, !llvm.loop !8

.critedge:                                        ; preds = %17, %.critedge2, %2, %8
  ret void
}